target datalayout = "e-m:e-p270:32:32-p271:32:32-p272:64:64-i64:64-i128:128-f80:128-n8:16:32:64-S128"
target triple = "x86_64-pc-linux-gnu"

%struct.Aig_Obj_t_ = type { %union.anon, ptr, ptr, i64, i32, i32, %union.anon.0 }
%union.anon = type { ptr }
%union.anon.0 = type { ptr }

; Function Attrs: inlinehint nounwind uwtable
define internal i32 @Aig_IsComplement(ptr noundef %0) #3 {
  %2 = alloca ptr, align 8
  store ptr %0, ptr %2, align 8, !tbaa !28
  %3 = load ptr, ptr %2, align 8, !tbaa !28
  %4 = ptrtoint ptr %3 to i64
  %5 = and i64 %4, 1
  %6 = trunc i64 %5 to i32
  ret i32 %6
}

; Function Attrs: inlinehint nounwind uwtable
define internal ptr @Aig_Regular(ptr noundef %0) #3 {
  %2 = alloca ptr, align 8
  store ptr %0, ptr %2, align 8, !tbaa !28
  %3 = load ptr, ptr %2, align 8, !tbaa !28
  %4 = ptrtoint ptr %3 to i64
  %5 = and i64 %4, -2
  %6 = inttoptr i64 %5 to ptr
  ret ptr %6
}

; Function Attrs: inlinehint nounwind uwtable
define internal ptr @Aig_Not(ptr noundef %0) #3 {
  %2 = alloca ptr, align 8
  store ptr %0, ptr %2, align 8, !tbaa !28
  %3 = load ptr, ptr %2, align 8, !tbaa !28
  %4 = ptrtoint ptr %3 to i64
  %5 = xor i64 %4, 1
  %6 = inttoptr i64 %5 to ptr
  ret ptr %6
}

; Function Attrs: inlinehint nounwind uwtable
define internal i32 @Aig_ObjFaninC1(ptr noundef %0) #3 {
  %2 = alloca ptr, align 8
  store ptr %0, ptr %2, align 8, !tbaa !28
  %3 = load ptr, ptr %2, align 8, !tbaa !28
  %4 = getelementptr inbounds nuw %struct.Aig_Obj_t_, ptr %3, i32 0, i32 2
  %5 = load ptr, ptr %4, align 8, !tbaa !64
  %6 = call i32 @Aig_IsComplement(ptr noundef %5)
  ret i32 %6
}

; Function Attrs: inlinehint nounwind uwtable
define internal i32 @Aig_ObjFaninC0(ptr noundef %0) #3 {
  %2 = alloca ptr, align 8
  store ptr %0, ptr %2, align 8, !tbaa !28
  %3 = load ptr, ptr %2, align 8, !tbaa !28
  %4 = getelementptr inbounds nuw %struct.Aig_Obj_t_, ptr %3, i32 0, i32 1
  %5 = load ptr, ptr %4, align 8, !tbaa !40
  %6 = call i32 @Aig_IsComplement(ptr noundef %5)
  ret i32 %6
}

; Function Attrs: inlinehint nounwind uwtable
define internal ptr @Aig_ObjFanin1(ptr noundef %0) #3 {
  %2 = alloca ptr, align 8
  store ptr %0, ptr %2, align 8, !tbaa !28
  %3 = load ptr, ptr %2, align 8, !tbaa !28
  %4 = getelementptr inbounds nuw %struct.Aig_Obj_t_, ptr %3, i32 0, i32 2
  %5 = load ptr, ptr %4, align 8, !tbaa !64
  %6 = call ptr @Aig_Regular(ptr noundef %5)
  ret ptr %6
}

; Function Attrs: inlinehint nounwind uwtable
define internal ptr @Aig_ObjFanin0(ptr noundef %0) #3 {
  %2 = alloca ptr, align 8
  store ptr %0, ptr %2, align 8, !tbaa !28
  %3 = load ptr, ptr %2, align 8, !tbaa !28
  %4 = getelementptr inbounds nuw %struct.Aig_Obj_t_, ptr %3, i32 0, i32 1
  %5 = load ptr, ptr %4, align 8, !tbaa !40
  %6 = call ptr @Aig_Regular(ptr noundef %5)
  ret ptr %6
}

; Function Attrs: nounwind uwtable
define void @Saig_AndDualRail(ptr noundef %0, ptr noundef %1, ptr noundef %2, ptr noundef %3) #0 {
  %5 = alloca ptr, align 8
  %6 = alloca ptr, align 8
  %7 = alloca ptr, align 8
  %8 = alloca ptr, align 8
  %9 = alloca ptr, align 8
  %10 = alloca ptr, align 8
  %11 = alloca ptr, align 8
  %12 = alloca ptr, align 8
  %13 = alloca ptr, align 8
  %14 = alloca ptr, align 8
  store ptr %0, ptr %5, align 8, !tbaa !3
  store ptr %1, ptr %6, align 8, !tbaa !28
  store ptr %2, ptr %7, align 8, !tbaa !63
  store ptr %3, ptr %8, align 8, !tbaa !63
  call void @llvm.lifetime.start.p0(i64 8, ptr %9) #10
  %15 = load ptr, ptr %6, align 8, !tbaa !28
  %16 = call ptr @Aig_ObjFanin0(ptr noundef %15)
  store ptr %16, ptr %9, align 8, !tbaa !28
  call void @llvm.lifetime.start.p0(i64 8, ptr %10) #10
  %17 = load ptr, ptr %6, align 8, !tbaa !28
  %18 = call ptr @Aig_ObjFanin1(ptr noundef %17)
  store ptr %18, ptr %10, align 8, !tbaa !28
  call void @llvm.lifetime.start.p0(i64 8, ptr %11) #10
  %19 = load ptr, ptr %6, align 8, !tbaa !28
  %20 = call i32 @Aig_ObjFaninC0(ptr noundef %19)
  %21 = icmp ne i32 %20, 0
  br i1 %21, label %22, label %26

22:                                               ; preds = %4
  %23 = load ptr, ptr %9, align 8, !tbaa !28
  %24 = getelementptr inbounds nuw %struct.Aig_Obj_t_, ptr %23, i32 0, i32 0
  %25 = load ptr, ptr %24, align 8, !tbaa !43
  br label %30

26:                                               ; preds = %4
  %27 = load ptr, ptr %9, align 8, !tbaa !28
  %28 = getelementptr inbounds nuw %struct.Aig_Obj_t_, ptr %27, i32 0, i32 6
  %29 = load ptr, ptr %28, align 8, !tbaa !43
  br label %30

30:                                               ; preds = %26, %22
  %31 = phi ptr [ %25, %22 ], [ %29, %26 ]
  store ptr %31, ptr %11, align 8, !tbaa !28
  call void @llvm.lifetime.start.p0(i64 8, ptr %12) #10
  %32 = load ptr, ptr %6, align 8, !tbaa !28
  %33 = call i32 @Aig_ObjFaninC0(ptr noundef %32)
  %34 = icmp ne i32 %33, 0
  br i1 %34, label %35, label %39

35:                                               ; preds = %30
  %36 = load ptr, ptr %9, align 8, !tbaa !28
  %37 = getelementptr inbounds nuw %struct.Aig_Obj_t_, ptr %36, i32 0, i32 6
  %38 = load ptr, ptr %37, align 8, !tbaa !43
  br label %43

39:                                               ; preds = %30
  %40 = load ptr, ptr %9, align 8, !tbaa !28
  %41 = getelementptr inbounds nuw %struct.Aig_Obj_t_, ptr %40, i32 0, i32 0
  %42 = load ptr, ptr %41, align 8, !tbaa !43
  br label %43

43:                                               ; preds = %39, %35
  %44 = phi ptr [ %38, %35 ], [ %42, %39 ]
  store ptr %44, ptr %12, align 8, !tbaa !28
  call void @llvm.lifetime.start.p0(i64 8, ptr %13) #10
  %45 = load ptr, ptr %6, align 8, !tbaa !28
  %46 = call i32 @Aig_ObjFaninC1(ptr noundef %45)
  %47 = icmp ne i32 %46, 0
  br i1 %47, label %48, label %52

48:                                               ; preds = %43
  %49 = load ptr, ptr %10, align 8, !tbaa !28
  %50 = getelementptr inbounds nuw %struct.Aig_Obj_t_, ptr %49, i32 0, i32 0
  %51 = load ptr, ptr %50, align 8, !tbaa !43
  br label %56

52:                                               ; preds = %43
  %53 = load ptr, ptr %10, align 8, !tbaa !28
  %54 = getelementptr inbounds nuw %struct.Aig_Obj_t_, ptr %53, i32 0, i32 6
  %55 = load ptr, ptr %54, align 8, !tbaa !43
  br label %56

56:                                               ; preds = %52, %48
  %57 = phi ptr [ %51, %48 ], [ %55, %52 ]
  store ptr %57, ptr %13, align 8, !tbaa !28
  call void @llvm.lifetime.start.p0(i64 8, ptr %14) #10
  %58 = load ptr, ptr %6, align 8, !tbaa !28
  %59 = call i32 @Aig_ObjFaninC1(ptr noundef %58)
  %60 = icmp ne i32 %59, 0
  br i1 %60, label %61, label %65

61:                                               ; preds = %56
  %62 = load ptr, ptr %10, align 8, !tbaa !28
  %63 = getelementptr inbounds nuw %struct.Aig_Obj_t_, ptr %62, i32 0, i32 6
  %64 = load ptr, ptr %63, align 8, !tbaa !43
  br label %69

65:                                               ; preds = %56
  %66 = load ptr, ptr %10, align 8, !tbaa !28
  %67 = getelementptr inbounds nuw %struct.Aig_Obj_t_, ptr %66, i32 0, i32 0
  %68 = load ptr, ptr %67, align 8, !tbaa !43
  br label %69

69:                                               ; preds = %65, %61
  %70 = phi ptr [ %64, %61 ], [ %68, %65 ]
  store ptr %70, ptr %14, align 8, !tbaa !28
  %71 = load ptr, ptr %5, align 8, !tbaa !3
  %72 = load ptr, ptr %5, align 8, !tbaa !3
  %73 = load ptr, ptr %11, align 8, !tbaa !28
  %74 = load ptr, ptr %12, align 8, !tbaa !28
  %75 = call ptr @Aig_Not(ptr noundef %74)
  %76 = call ptr @Aig_And(ptr noundef %72, ptr noundef %73, ptr noundef %75)
  %77 = load ptr, ptr %5, align 8, !tbaa !3
  %78 = load ptr, ptr %13, align 8, !tbaa !28
  %79 = load ptr, ptr %14, align 8, !tbaa !28
  %80 = call ptr @Aig_Not(ptr noundef %79)
  %81 = call ptr @Aig_And(ptr noundef %77, ptr noundef %78, ptr noundef %80)
  %82 = call ptr @Aig_Or(ptr noundef %71, ptr noundef %76, ptr noundef %81)
  %83 = load ptr, ptr %7, align 8, !tbaa !63
  store ptr %82, ptr %83, align 8, !tbaa !28
  %84 = load ptr, ptr %5, align 8, !tbaa !3
  %85 = load ptr, ptr %5, align 8, !tbaa !3
  %86 = load ptr, ptr %11, align 8, !tbaa !28
  %87 = call ptr @Aig_Not(ptr noundef %86)
  %88 = load ptr, ptr %12, align 8, !tbaa !28
  %89 = call ptr @Aig_And(ptr noundef %85, ptr noundef %87, ptr noundef %88)
  %90 = load ptr, ptr %5, align 8, !tbaa !3
  %91 = load ptr, ptr %13, align 8, !tbaa !28
  %92 = call ptr @Aig_Not(ptr noundef %91)
  %93 = load ptr, ptr %14, align 8, !tbaa !28
  %94 = call ptr @Aig_And(ptr noundef %90, ptr noundef %92, ptr noundef %93)
  %95 = call ptr @Aig_And(ptr noundef %84, ptr noundef %89, ptr noundef %94)
  %96 = load ptr, ptr %8, align 8, !tbaa !63
  store ptr %95, ptr %96, align 8, !tbaa !28
  call void @llvm.lifetime.end.p0(i64 8, ptr %14) #10
  call void @llvm.lifetime.end.p0(i64 8, ptr %13) #10
  call void @llvm.lifetime.end.p0(i64 8, ptr %12) #10
  call void @llvm.lifetime.end.p0(i64 8, ptr %11) #10
  call void @llvm.lifetime.end.p0(i64 8, ptr %10) #10
  call void @llvm.lifetime.end.p0(i64 8, ptr %9) #10
  ret void
}