; Function Attrs: nounwind uwtable
define void @Saig_AndDualRail(ptr noundef %0, ptr noundef readonly captures(none) %1, ptr noundef writeonly captures(none) initializes((0, 8)) %2, ptr noundef writeonly captures(none) initializes((0, 8)) %3) local_unnamed_addr #3 {
  %5 = getelementptr i8, ptr %1, i64 8
  %.val = load ptr, ptr %5, align 8, !tbaa !32
  %6 = ptrtoint ptr %.val to i64
  %7 = and i64 %6, -2
  %8 = inttoptr i64 %7 to ptr
  %9 = getelementptr i8, ptr %1, i64 16
  %.val38 = load ptr, ptr %9, align 8, !tbaa !45
  %10 = ptrtoint ptr %.val38 to i64
  %11 = and i64 %10, -2
  %12 = inttoptr i64 %11 to ptr
  %13 = and i64 %6, 1
  %.not = icmp eq i64 %13, 0
  %14 = getelementptr inbounds nuw i8, ptr %8, i64 40
  %.in = select i1 %.not, ptr %14, ptr %8
  %15 = load ptr, ptr %.in, align 8, !tbaa !33
  %.in31 = select i1 %.not, ptr %8, ptr %14
  %16 = load ptr, ptr %.in31, align 8, !tbaa !33
  %17 = and i64 %10, 1
  %.not32 = icmp eq i64 %17, 0
  %18 = getelementptr inbounds nuw i8, ptr %12, i64 40
  %.in33 = select i1 %.not32, ptr %18, ptr %12
  %19 = load ptr, ptr %.in33, align 8, !tbaa !33
  %.in35 = select i1 %.not32, ptr %12, ptr %18
  %20 = load ptr, ptr %.in35, align 8, !tbaa !33
  %21 = ptrtoint ptr %16 to i64
  %22 = xor i64 %21, 1
  %23 = inttoptr i64 %22 to ptr
  %24 = tail call ptr @Aig_And(ptr noundef %0, ptr noundef %15, ptr noundef %23) #18
  %25 = ptrtoint ptr %20 to i64
  %26 = xor i64 %25, 1
  %27 = inttoptr i64 %26 to ptr
  %28 = tail call ptr @Aig_And(ptr noundef %0, ptr noundef %19, ptr noundef %27) #18
  %29 = tail call ptr @Aig_Or(ptr noundef %0, ptr noundef %24, ptr noundef %28) #18
  store ptr %29, ptr %2, align 8, !tbaa !56
  %30 = ptrtoint ptr %15 to i64
  %31 = xor i64 %30, 1
  %32 = inttoptr i64 %31 to ptr
  %33 = tail call ptr @Aig_And(ptr noundef %0, ptr noundef %32, ptr noundef %16) #18
  %34 = ptrtoint ptr %19 to i64
  %35 = xor i64 %34, 1
  %36 = inttoptr i64 %35 to ptr
  %37 = tail call ptr @Aig_And(ptr noundef %0, ptr noundef %36, ptr noundef %20) #18
  %38 = tail call ptr @Aig_And(ptr noundef %0, ptr noundef %33, ptr noundef %37) #18
  store ptr %38, ptr %3, align 8, !tbaa !56
  ret void
}